; Function Attrs: mustprogress uwtable
define void @_ZNK35colvarbias_restraint_harmonic_walls15restraint_forceEm(ptr dead_on_unwind noalias writable sret(%class.colvarvalue) align 8 %0, ptr noundef nonnull align 8 dereferenceable(120) %1, i64 noundef %2) unnamed_addr #4 align 2 {
  %4 = alloca double, align 8
  %5 = load ptr, ptr %1, align 8
  %6 = getelementptr inbounds i8, ptr %5, i64 104
  %7 = load ptr, ptr %6, align 8
  %8 = tail call noundef double %7(ptr noundef nonnull align 8 dereferenceable(120) %1, i64 noundef %2)
  %9 = fcmp ogt double %8, 0.000000e+00
  %.in.v = select i1 %9, i64 112, i64 104
  %.in = getelementptr inbounds i8, ptr %1, i64 %.in.v
  %10 = load double, ptr %.in, align 8
  %11 = load ptr, ptr %1, align 8
  %12 = getelementptr i8, ptr %11, i64 -152
  %13 = load i64, ptr %12, align 8
  %14 = getelementptr inbounds i8, ptr %1, i64 %13
  %15 = getelementptr inbounds i8, ptr %14, i64 8
  %16 = load double, ptr %15, align 8
  %17 = fneg double %16
  %18 = fmul double %10, %17
  %19 = getelementptr i8, ptr %11, i64 -24
  %20 = load i64, ptr %19, align 8
  %21 = getelementptr inbounds i8, ptr %1, i64 %20
  %22 = getelementptr inbounds i8, ptr %21, i64 152
  %sext = shl i64 %2, 32
  %23 = ashr exact i64 %sext, 32
  %24 = load ptr, ptr %22, align 8
  %25 = getelementptr inbounds ptr, ptr %24, i64 %23
  %26 = load ptr, ptr %25, align 8
  %27 = getelementptr inbounds i8, ptr %26, i64 472
  %28 = load double, ptr %27, align 8
  %29 = fmul double %28, %28
  %30 = fdiv double %18, %29
  %31 = fmul double %8, %30
  store double %31, ptr %4, align 8
  call void @_ZN11colvarvalueC1ERKd(ptr noundef nonnull align 8 dereferenceable(168) %0, ptr noundef nonnull align 8 dereferenceable(8) %4)
  ret void
}